target datalayout = "e-m:e-p270:32:32-p271:32:32-p272:64:64-i64:64-i128:128-f80:128-n8:16:32:64-S128"
target triple = "x86_64-unknown-linux-gnu"

%"class.proxygen::GenericFilter" = type { %"class.proxygen::HTTPCodec", %"class.proxygen::HTTPCodec::Callback", i8, i8, ptr, ptr, ptr, ptr, ptr, ptr }
%"class.proxygen::HTTPCodec" = type { ptr }
%"class.proxygen::HTTPCodec::Callback" = type { ptr }

; Function Attrs: mustprogress uwtable
define noundef i64 @_ZN8proxygen26PassThroughHTTPCodecFilter16addPriorityNodesERNS_9HTTPCodec13PriorityQueueERN5folly10IOBufQueueEh(ptr noundef nonnull align 8 dereferenceable(72) %this, ptr noundef nonnull align 8 dereferenceable(8) %queue, ptr noundef nonnull align 8 dereferenceable(72) %writeBuf, i8 noundef zeroext %maxLevel) unnamed_addr #4 align 2 {
entry:
  %this.addr = alloca ptr, align 8
  %queue.addr = alloca ptr, align 8
  %writeBuf.addr = alloca ptr, align 8
  %maxLevel.addr = alloca i8, align 1
  store ptr %this, ptr %this.addr, align 8
  store ptr %queue, ptr %queue.addr, align 8
  store ptr %writeBuf, ptr %writeBuf.addr, align 8
  store i8 %maxLevel, ptr %maxLevel.addr, align 1
  %this1 = load ptr, ptr %this.addr, align 8
  %call_ = getelementptr inbounds %"class.proxygen::GenericFilter", ptr %this1, i32 0, i32 4
  %0 = load ptr, ptr %call_, align 8
  %1 = load ptr, ptr %queue.addr, align 8
  %2 = load ptr, ptr %writeBuf.addr, align 8
  %3 = load i8, ptr %maxLevel.addr, align 1
  %vtable = load ptr, ptr %0, align 8
  %vfn = getelementptr inbounds ptr, ptr %vtable, i64 51
  %4 = load ptr, ptr %vfn, align 8
  %call = call noundef i64 %4(ptr noundef nonnull align 8 dereferenceable(8) %0, ptr noundef nonnull align 8 dereferenceable(8) %1, ptr noundef nonnull align 8 dereferenceable(72) %2, i8 noundef zeroext %3)
  ret i64 %call
}